target datalayout = "e-m:e-p270:32:32-p271:32:32-p272:64:64-i64:64-i128:128-f80:128-n8:16:32:64-S128"
target triple = "x86_64-pc-linux-gnu"

%struct.formnode = type { i16, i16, i16, i32, i32, i32, i32, i16, i16, i16, i32, ptr, ptr, ptr, ptr, ptr, ptr, ptr, ptr, ptr, ptr, ptr }
%struct.fieldnode = type { i16, i16, i16, i16, i16, i32, i32, i32, i32, i16, i16, i16, i16, i32, i32, i32, i32, ptr, ptr, ptr, ptr, ptr, ptr, ptr, ptr }

; Function Attrs: nounwind uwtable
define internal i32 @Synchronize_Linked_Fields(ptr noundef %0) #0 {
  %2 = alloca i32, align 4
  %3 = alloca ptr, align 8
  %4 = alloca ptr, align 8
  %5 = alloca i32, align 4
  %6 = alloca i32, align 4
  %7 = alloca i32, align 4
  store ptr %0, ptr %3, align 8, !tbaa !17
  call void @llvm.lifetime.start.p0(i64 8, ptr %4) #9
  call void @llvm.lifetime.start.p0(i64 4, ptr %5) #9
  store i32 0, ptr %5, align 4, !tbaa !35
  call void @llvm.lifetime.start.p0(i64 4, ptr %6) #9
  %8 = load ptr, ptr %3, align 8, !tbaa !17
  %9 = icmp ne ptr %8, null
  br i1 %9, label %11, label %10

10:                                               ; preds = %1
  store i32 -2, ptr %2, align 4
  store i32 1, ptr %7, align 4
  br label %41

11:                                               ; preds = %1
  %12 = load ptr, ptr %3, align 8, !tbaa !17
  %13 = getelementptr inbounds nuw %struct.fieldnode, ptr %12, i32 0, i32 19
  %14 = load ptr, ptr %13, align 8, !tbaa !82
  %15 = icmp ne ptr %14, null
  br i1 %15, label %17, label %16

16:                                               ; preds = %11
  store i32 -1, ptr %2, align 4
  store i32 1, ptr %7, align 4
  br label %41

17:                                               ; preds = %11
  %18 = load ptr, ptr %3, align 8, !tbaa !17
  %19 = getelementptr inbounds nuw %struct.fieldnode, ptr %18, i32 0, i32 19
  %20 = load ptr, ptr %19, align 8, !tbaa !82
  store ptr %20, ptr %4, align 8, !tbaa !17
  br label %21

21:                                               ; preds = %35, %17
  %22 = load ptr, ptr %4, align 8, !tbaa !17
  %23 = load ptr, ptr %3, align 8, !tbaa !17
  %24 = icmp ne ptr %22, %23
  br i1 %24, label %25, label %39

25:                                               ; preds = %21
  %26 = load ptr, ptr %4, align 8, !tbaa !17
  %27 = call i32 @Synchronize_Field(ptr noundef %26)
  store i32 %27, ptr %6, align 4, !tbaa !35
  %28 = icmp ne i32 %27, 0
  br i1 %28, label %29, label %34

29:                                               ; preds = %25
  %30 = load i32, ptr %5, align 4, !tbaa !35
  %31 = icmp eq i32 %30, 0
  br i1 %31, label %32, label %34

32:                                               ; preds = %29
  %33 = load i32, ptr %6, align 4, !tbaa !35
  store i32 %33, ptr %5, align 4, !tbaa !35
  br label %34

34:                                               ; preds = %32, %29, %25
  br label %35

35:                                               ; preds = %34
  %36 = load ptr, ptr %4, align 8, !tbaa !17
  %37 = getelementptr inbounds nuw %struct.fieldnode, ptr %36, i32 0, i32 19
  %38 = load ptr, ptr %37, align 8, !tbaa !82
  store ptr %38, ptr %4, align 8, !tbaa !17
  br label %21, !llvm.loop !83

39:                                               ; preds = %21
  %40 = load i32, ptr %5, align 4, !tbaa !35
  store i32 %40, ptr %2, align 4
  store i32 1, ptr %7, align 4
  br label %41

41:                                               ; preds = %39, %16, %10
  call void @llvm.lifetime.end.p0(i64 4, ptr %6) #9
  call void @llvm.lifetime.end.p0(i64 4, ptr %5) #9
  call void @llvm.lifetime.end.p0(i64 8, ptr %4) #9
  %42 = load i32, ptr %2, align 4
  ret i32 %42
}

; Function Attrs: nounwind uwtable
define dso_local zeroext i1 @_nc_Internal_Validation(ptr noundef %0) #0 {
  %2 = alloca i1, align 1
  %3 = alloca ptr, align 8
  %4 = alloca ptr, align 8
  %5 = alloca i32, align 4
  store ptr %0, ptr %3, align 8, !tbaa !4
  call void @llvm.lifetime.start.p0(i64 8, ptr %4) #9
  %6 = load ptr, ptr %3, align 8, !tbaa !4
  %7 = getelementptr inbounds nuw %struct.formnode, ptr %6, i32 0, i32 15
  %8 = load ptr, ptr %7, align 8, !tbaa !16
  store ptr %8, ptr %4, align 8, !tbaa !17
  %9 = load ptr, ptr %3, align 8, !tbaa !4
  call void @Synchronize_Buffer(ptr noundef %9)
  %10 = load ptr, ptr %3, align 8, !tbaa !4
  %11 = getelementptr inbounds nuw %struct.formnode, ptr %10, i32 0, i32 0
  %12 = load i16, ptr %11, align 8, !tbaa !47
  %13 = zext i16 %12 to i32
  %14 = and i32 %13, 32
  %15 = icmp ne i32 %14, 0
  br i1 %15, label %22, label %16

16:                                               ; preds = %1
  %17 = load ptr, ptr %4, align 8, !tbaa !17
  %18 = getelementptr inbounds nuw %struct.fieldnode, ptr %17, i32 0, i32 16
  %19 = load i32, ptr %18, align 8, !tbaa !23
  %20 = and i32 %19, 256
  %21 = icmp ne i32 %20, 0
  br i1 %21, label %47, label %22

22:                                               ; preds = %16, %1
  %23 = load ptr, ptr %4, align 8, !tbaa !17
  %24 = getelementptr inbounds nuw %struct.fieldnode, ptr %23, i32 0, i32 21
  %25 = load ptr, ptr %24, align 8, !tbaa !67
  %26 = load ptr, ptr %4, align 8, !tbaa !17
  %27 = load ptr, ptr %4, align 8, !tbaa !17
  %28 = getelementptr inbounds nuw %struct.fieldnode, ptr %27, i32 0, i32 22
  %29 = load ptr, ptr %28, align 8, !tbaa !68
  %30 = call zeroext i1 @Check_Field(ptr noundef %25, ptr noundef %26, ptr noundef %29)
  br i1 %30, label %32, label %31

31:                                               ; preds = %22
  store i1 false, ptr %2, align 1
  store i32 1, ptr %5, align 4
  br label %48

32:                                               ; preds = %22
  %33 = load ptr, ptr %3, align 8, !tbaa !4
  %34 = getelementptr inbounds nuw %struct.formnode, ptr %33, i32 0, i32 0
  %35 = load i16, ptr %34, align 8, !tbaa !47
  %36 = zext i16 %35 to i32
  %37 = and i32 %36, -33
  %38 = trunc i32 %37 to i16
  store i16 %38, ptr %34, align 8, !tbaa !47
  %39 = load ptr, ptr %4, align 8, !tbaa !17
  %40 = getelementptr inbounds nuw %struct.fieldnode, ptr %39, i32 0, i32 0
  %41 = load i16, ptr %40, align 8, !tbaa !37
  %42 = zext i16 %41 to i32
  %43 = or i32 %42, 1
  %44 = trunc i32 %43 to i16
  store i16 %44, ptr %40, align 8, !tbaa !37
  %45 = load ptr, ptr %4, align 8, !tbaa !17
  %46 = call i32 @Synchronize_Linked_Fields(ptr noundef %45)
  br label %47

47:                                               ; preds = %32, %16
  store i1 true, ptr %2, align 1
  store i32 1, ptr %5, align 4
  br label %48

48:                                               ; preds = %47, %31
  call void @llvm.lifetime.end.p0(i64 8, ptr %4) #9
  %49 = load i1, ptr %2, align 1
  ret i1 %49
}