; Function Attrs: nounwind uwtable
define dso_local noundef zeroext i1 @_nc_Internal_Validation(ptr noundef captures(none) %0) local_unnamed_addr #0 {
  %2 = getelementptr inbounds nuw i8, ptr %0, i64 72
  %3 = load ptr, ptr %2, align 8, !tbaa !14
  tail call fastcc void @Synchronize_Buffer(ptr noundef %0)
  %4 = load i16, ptr %0, align 8, !tbaa !45
  %5 = and i16 %4, 32
  %.not = icmp eq i16 %5, 0
  br i1 %.not, label %6, label %10

6:                                                ; preds = %1
  %7 = getelementptr inbounds nuw i8, ptr %3, i64 48
  %8 = load i32, ptr %7, align 8, !tbaa !19
  %9 = and i32 %8, 256
  %.not11 = icmp eq i32 %9, 0
  br i1 %.not11, label %10, label %Synchronize_Linked_Fields.exit

10:                                               ; preds = %6, %1
  %11 = getelementptr inbounds nuw i8, ptr %3, i64 88
  %12 = load ptr, ptr %11, align 8, !tbaa !63
  %13 = getelementptr inbounds nuw i8, ptr %3, i64 96
  %14 = load ptr, ptr %13, align 8, !tbaa !64
  %15 = tail call fastcc zeroext i1 @Check_Field(ptr noundef %12, ptr noundef %3, ptr noundef %14)
  br i1 %15, label %16, label %Synchronize_Linked_Fields.exit

16:                                               ; preds = %10
  %17 = load i16, ptr %0, align 8, !tbaa !45
  %18 = and i16 %17, -33
  store i16 %18, ptr %0, align 8, !tbaa !45
  %19 = load i16, ptr %3, align 8, !tbaa !34
  %20 = or i16 %19, 1
  store i16 %20, ptr %3, align 8, !tbaa !34
  %21 = getelementptr inbounds nuw i8, ptr %3, i64 72
  %22 = load ptr, ptr %21, align 8, !tbaa !65
  %.not16.i = icmp eq ptr %22, null
  %.not1718.i = icmp eq ptr %22, %3
  %or.cond = select i1 %.not16.i, i1 true, i1 %.not1718.i
  br i1 %or.cond, label %Synchronize_Linked_Fields.exit, label %.lr.ph.i

.lr.ph.i:                                         ; preds = %16, %.lr.ph.i
  %.01219.i = phi ptr [ %25, %.lr.ph.i ], [ %22, %16 ]
  %23 = tail call fastcc i32 @Synchronize_Field(ptr noundef %.01219.i)
  %24 = getelementptr inbounds nuw i8, ptr %.01219.i, i64 72
  %25 = load ptr, ptr %24, align 8, !tbaa !65
  %.not17.i = icmp eq ptr %25, %3
  br i1 %.not17.i, label %Synchronize_Linked_Fields.exit, label %.lr.ph.i, !llvm.loop !66

Synchronize_Linked_Fields.exit:                   ; preds = %.lr.ph.i, %16, %6, %10
  %.0 = phi i1 [ false, %10 ], [ true, %6 ], [ true, %16 ], [ true, %.lr.ph.i ]
  ret i1 %.0
}